; Function Attrs: nounwind uwtable
define ptr @l_Lean_FuzzyMatching_fuzzyMatchScore_x3f___boxed(ptr noundef %0, ptr noundef %1) local_unnamed_addr #0 {
  %3 = getelementptr i8, ptr %0, i64 8
  %.val.i = load i64, ptr %3, align 8, !tbaa !13
  %.mask.i = and i64 %.val.i, 9223372036854775807
  %.not.i4 = icmp eq i64 %.mask.i, 1
  br i1 %.not.i4, label %21, label %4

4:                                                ; preds = %2
  %5 = getelementptr i8, ptr %1, i64 24
  %.val19.i.i = load i64, ptr %5, align 8, !tbaa !13
  %6 = shl i64 %.val19.i.i, 1
  %7 = getelementptr i8, ptr %0, i64 24
  %.val.i.i = load i64, ptr %7, align 8, !tbaa !13
  %8 = shl i64 %.val.i.i, 1
  %.not.i14.i = icmp ult i64 %6, %8
  br i1 %.not.i14.i, label %11, label %9

9:                                                ; preds = %4
  %10 = tail call ptr @l_Lean_FuzzyMatching_fuzzyMatchScore_x3f___lambda__3(ptr noundef nonnull %0, ptr noundef nonnull %1, ptr nonnull poison)
  br label %l_Lean_FuzzyMatching_fuzzyMatchScore_x3f.exit

11:                                               ; preds = %4
  %12 = ptrtoint ptr %0 to i64
  %13 = and i64 %12, 1
  %.not20.i.i = icmp eq i64 %13, 0
  br i1 %.not20.i.i, label %14, label %l_Lean_FuzzyMatching_fuzzyMatchScore_x3f.exit

14:                                               ; preds = %11
  %15 = load i32, ptr %0, align 4, !tbaa !5
  %16 = icmp sgt i32 %15, 1
  br i1 %16, label %17, label %19, !prof !10

17:                                               ; preds = %14
  %18 = add nsw i32 %15, -1
  store i32 %18, ptr %0, align 4, !tbaa !5
  br label %l_Lean_FuzzyMatching_fuzzyMatchScore_x3f.exit

19:                                               ; preds = %14
  %.not.i17.i.i = icmp eq i32 %15, 0
  br i1 %.not.i17.i.i, label %l_Lean_FuzzyMatching_fuzzyMatchScore_x3f.exit, label %20

20:                                               ; preds = %19
  tail call void @lean_dec_ref_cold(ptr noundef nonnull %0) #7
  br label %l_Lean_FuzzyMatching_fuzzyMatchScore_x3f.exit

21:                                               ; preds = %2
  %22 = ptrtoint ptr %0 to i64
  %23 = and i64 %22, 1
  %.not16.i = icmp eq i64 %23, 0
  br i1 %.not16.i, label %24, label %lean_dec.exit.i

24:                                               ; preds = %21
  %25 = load i32, ptr %0, align 4, !tbaa !5
  %26 = icmp sgt i32 %25, 1
  br i1 %26, label %27, label %29, !prof !10

27:                                               ; preds = %24
  %28 = add nsw i32 %25, -1
  store i32 %28, ptr %0, align 4, !tbaa !5
  br label %lean_dec.exit.i

29:                                               ; preds = %24
  %.not.i12.i = icmp eq i32 %25, 0
  br i1 %.not.i12.i, label %lean_dec.exit.i, label %30

30:                                               ; preds = %29
  tail call void @lean_dec_ref_cold(ptr noundef nonnull %0) #7
  br label %lean_dec.exit.i

lean_dec.exit.i:                                  ; preds = %30, %29, %27, %21
  %31 = load ptr, ptr @l_Lean_FuzzyMatching_fuzzyMatchScore_x3f___lambda__1___closed__5, align 8, !tbaa !11
  br label %l_Lean_FuzzyMatching_fuzzyMatchScore_x3f.exit

l_Lean_FuzzyMatching_fuzzyMatchScore_x3f.exit:    ; preds = %9, %11, %17, %19, %20, %lean_dec.exit.i
  %.0.i = phi ptr [ %31, %lean_dec.exit.i ], [ %10, %9 ], [ inttoptr (i64 1 to ptr), %20 ], [ inttoptr (i64 1 to ptr), %19 ], [ inttoptr (i64 1 to ptr), %17 ], [ inttoptr (i64 1 to ptr), %11 ]
  %32 = ptrtoint ptr %1 to i64
  %33 = and i64 %32, 1
  %.not = icmp eq i64 %33, 0
  br i1 %.not, label %34, label %lean_dec.exit

34:                                               ; preds = %l_Lean_FuzzyMatching_fuzzyMatchScore_x3f.exit
  %35 = load i32, ptr %1, align 4, !tbaa !5
  %36 = icmp sgt i32 %35, 1
  br i1 %36, label %37, label %39, !prof !10

37:                                               ; preds = %34
  %38 = add nsw i32 %35, -1
  store i32 %38, ptr %1, align 4, !tbaa !5
  br label %lean_dec.exit

39:                                               ; preds = %34
  %.not.i = icmp eq i32 %35, 0
  br i1 %.not.i, label %lean_dec.exit, label %40

40:                                               ; preds = %39
  tail call void @lean_dec_ref_cold(ptr noundef nonnull %1) #7
  br label %lean_dec.exit

lean_dec.exit:                                    ; preds = %40, %39, %37, %l_Lean_FuzzyMatching_fuzzyMatchScore_x3f.exit
  ret ptr %.0.i
}